(lp0
(S'ck28'
p1
(lp2
S'fiction'
p3
atp4
a(S'ca40'
p5
(lp6
S'news'
p7
atp8
a(S'ca41'
p9
(lp10
S'news'
p11
atp12
a(S'ck20'
p13
(lp14
S'fiction'
p15
atp16
a(S'ck21'
p17
(lp18
S'fiction'
p19
atp20
a(S'ck22'
p21
(lp22
S'fiction'
p23
atp24
a(S'ck23'
p25
(lp26
S'fiction'
p27
atp28
a(S'ck24'
p29
(lp30
S'fiction'
p31
atp32
a(S'ca42'
p33
(lp34
S'news'
p35
atp36
a(S'ck26'
p37
(lp38
S'fiction'
p39
atp40
a(S'ck27'
p41
(lp42
S'fiction'
p43
atp44
a(S'ca43'
p45
(lp46
S'news'
p47
atp48
a(S'ca44'
p49
(lp50
S'news'
p51
atp52
a(S'cf29'
p53
(lp54
S'lore'
p55
atp56
a(S'cf28'
p57
(lp58
S'lore'
p59
atp60
a(S'ch30'
p61
(lp62
S'government'
p63
atp64
a(S'cf21'
p65
(lp66
S'lore'
p67
atp68
a(S'cf20'
p69
(lp70
S'lore'
p71
atp72
a(S'cf23'
p73
(lp74
S'lore'
p75
atp76
a(S'cf22'
p77
(lp78
S'lore'
p79
atp80
a(S'cf25'
p81
(lp82
S'lore'
p83
atp84
a(S'cf24'
p85
(lp86
S'lore'
p87
atp88
a(S'cf27'
p89
(lp90
S'lore'
p91
atp92
a(S'cf26'
p93
(lp94
S'lore'
p95
atp96
a(S'cl23'
p97
(lp98
S'mystery'
p99
atp100
a(S'cl22'
p101
(lp102
S'mystery'
p103
atp104
a(S'cl21'
p105
(lp106
S'mystery'
p107
atp108
a(S'cl20'
p109
(lp110
S'mystery'
p111
atp112
a(S'cl24'
p113
(lp114
S'mystery'
p115
atp116
a(S'cg15'
p117
(lp118
S'belles_lettres'
p119
atp120
a(S'cg14'
p121
(lp122
S'belles_lettres'
p123
atp124
a(S'cg17'
p125
(lp126
S'belles_lettres'
p127
atp128
a(S'cg16'
p129
(lp130
S'belles_lettres'
p131
atp132
a(S'cg11'
p133
(lp134
S'belles_lettres'
p135
atp136
a(S'cg10'
p137
(lp138
S'belles_lettres'
p139
atp140
a(S'cg13'
p141
(lp142
S'belles_lettres'
p143
atp144
a(S'cg12'
p145
(lp146
S'belles_lettres'
p147
atp148
a(S'cg19'
p149
(lp150
S'belles_lettres'
p151
atp152
a(S'cg18'
p153
(lp154
S'belles_lettres'
p155
atp156
a(S'cc08'
p157
(lp158
S'reviews'
p159
atp160
a(S'cc09'
p161
(lp162
S'reviews'
p163
atp164
a(S'cc06'
p165
(lp166
S'reviews'
p167
atp168
a(S'cc07'
p169
(lp170
S'reviews'
p171
atp172
a(S'cc04'
p173
(lp174
S'reviews'
p175
atp176
a(S'cc05'
p177
(lp178
S'reviews'
p179
atp180
a(S'cc02'
p181
(lp182
S'reviews'
p183
atp184
a(S'cc03'
p185
(lp186
S'reviews'
p187
atp188
a(S'cc01'
p189
(lp190
S'reviews'
p191
atp192
a(S'cj50'
p193
(lp194
S'learned'
p195
atp196
a(S'cj51'
p197
(lp198
S'learned'
p199
atp200
a(S'cj52'
p201
(lp202
S'learned'
p203
atp204
a(S'cj53'
p205
(lp206
S'learned'
p207
atp208
a(S'cj54'
p209
(lp210
S'learned'
p211
atp212
a(S'cj55'
p213
(lp214
S'learned'
p215
atp216
a(S'cj56'
p217
(lp218
S'learned'
p219
atp220
a(S'cj57'
p221
(lp222
S'learned'
p223
atp224
a(S'cj58'
p225
(lp226
S'learned'
p227
atp228
a(S'cj59'
p229
(lp230
S'learned'
p231
atp232
a(S'cj80'
p233
(lp234
S'learned'
p235
atp236
a(S'cd01'
p237
(lp238
S'religion'
p239
atp240
a(S'cd03'
p241
(lp242
S'religion'
p243
atp244
a(S'cd02'
p245
(lp246
S'religion'
p247
atp248
a(S'cd05'
p249
(lp250
S'religion'
p251
atp252
a(S'cd04'
p253
(lp254
S'religion'
p255
atp256
a(S'cd07'
p257
(lp258
S'religion'
p259
atp260
a(S'cd06'
p261
(lp262
S'religion'
p263
atp264
a(S'cd09'
p265
(lp266
S'religion'
p267
atp268
a(S'cd08'
p269
(lp270
S'religion'
p271
atp272
a(S'cj62'
p273
(lp274
S'learned'
p275
atp276
a(S'ck25'
p277
(lp278
S'fiction'
p279
atp280
a(S'cj65'
p281
(lp282
S'learned'
p283
atp284
a(S'cj64'
p285
(lp286
S'learned'
p287
atp288
a(S'cp18'
p289
(lp290
S'romance'
p291
atp292
a(S'cp19'
p293
(lp294
S'romance'
p295
atp296
a(S'cp12'
p297
(lp298
S'romance'
p299
atp300
a(S'cp13'
p301
(lp302
S'romance'
p303
atp304
a(S'cp10'
p305
(lp306
S'romance'
p307
atp308
a(S'cp11'
p309
(lp310
S'romance'
p311
atp312
a(S'cp16'
p313
(lp314
S'romance'
p315
atp316
a(S'cp17'
p317
(lp318
S'romance'
p319
atp320
a(S'cp14'
p321
(lp322
S'romance'
p323
atp324
a(S'cp15'
p325
(lp326
S'romance'
p327
atp328
a(S'cf10'
p329
(lp330
S'lore'
p331
atp332
a(S'cf11'
p333
(lp334
S'lore'
p335
atp336
a(S'cf12'
p337
(lp338
S'lore'
p339
atp340
a(S'cf13'
p341
(lp342
S'lore'
p343
atp344
a(S'cf14'
p345
(lp346
S'lore'
p347
atp348
a(S'cf15'
p349
(lp350
S'lore'
p351
atp352
a(S'cf16'
p353
(lp354
S'lore'
p355
atp356
a(S'cf17'
p357
(lp358
S'lore'
p359
atp360
a(S'cg51'
p361
(lp362
S'belles_lettres'
p363
atp364
a(S'cg50'
p365
(lp366
S'belles_lettres'
p367
atp368
a(S'cg53'
p369
(lp370
S'belles_lettres'
p371
atp372
a(S'cg52'
p373
(lp374
S'belles_lettres'
p375
atp376
a(S'cg55'
p377
(lp378
S'belles_lettres'
p379
atp380
a(S'cg54'
p381
(lp382
S'belles_lettres'
p383
atp384
a(S'cg57'
p385
(lp386
S'belles_lettres'
p387
atp388
a(S'cg56'
p389
(lp390
S'belles_lettres'
p391
atp392
a(S'cg59'
p393
(lp394
S'belles_lettres'
p395
atp396
a(S'ca28'
p397
(lp398
S'news'
p399
atp400
a(S'ca29'
p401
(lp402
S'news'
p403
atp404
a(S'cg58'
p405
(lp406
S'belles_lettres'
p407
atp408
a(S'ca22'
p409
(lp410
S'news'
p411
atp412
a(S'ca23'
p413
(lp414
S'news'
p415
atp416
a(S'ca20'
p417
(lp418
S'news'
p419
atp420
a(S'ca21'
p421
(lp422
S'news'
p423
atp424
a(S'ca26'
p425
(lp426
S'news'
p427
atp428
a(S'ca27'
p429
(lp430
S'news'
p431
atp432
a(S'ca24'
p433
(lp434
S'news'
p435
atp436
a(S'ca25'
p437
(lp438
S'news'
p439
atp440
a(S'cf47'
p441
(lp442
S'lore'
p443
atp444
a(S'cf46'
p445
(lp446
S'lore'
p447
atp448
a(S'cf45'
p449
(lp450
S'lore'
p451
atp452
a(S'cf44'
p453
(lp454
S'lore'
p455
atp456
a(S'cf43'
p457
(lp458
S'lore'
p459
atp460
a(S'cf42'
p461
(lp462
S'lore'
p463
atp464
a(S'cf18'
p465
(lp466
S'lore'
p467
atp468
a(S'cg28'
p469
(lp470
S'belles_lettres'
p471
atp472
a(S'cc17'
p473
(lp474
S'reviews'
p475
atp476
a(S'cf19'
p477
(lp478
S'lore'
p479
atp480
a(S'cg24'
p481
(lp482
S'belles_lettres'
p483
atp484
a(S'cg25'
p485
(lp486
S'belles_lettres'
p487
atp488
a(S'cg26'
p489
(lp490
S'belles_lettres'
p491
atp492
a(S'cg27'
p493
(lp494
S'belles_lettres'
p495
atp496
a(S'cg20'
p497
(lp498
S'belles_lettres'
p499
atp500
a(S'cg21'
p501
(lp502
S'belles_lettres'
p503
atp504
a(S'cg22'
p505
(lp506
S'belles_lettres'
p507
atp508
a(S'cg23'
p509
(lp510
S'belles_lettres'
p511
atp512
a(S'ce08'
p513
(lp514
S'hobbies'
p515
atp516
a(S'ce09'
p517
(lp518
S'hobbies'
p519
atp520
a(S'cb25'
p521
(lp522
S'editorial'
p523
atp524
a(S'cb24'
p525
(lp526
S'editorial'
p527
atp528
a(S'cb27'
p529
(lp530
S'editorial'
p531
atp532
a(S'cb26'
p533
(lp534
S'editorial'
p535
atp536
a(S'cb21'
p537
(lp538
S'editorial'
p539
atp540
a(S'cb20'
p541
(lp542
S'editorial'
p543
atp544
a(S'cb23'
p545
(lp546
S'editorial'
p547
atp548
a(S'cb22'
p549
(lp550
S'editorial'
p551
atp552
a(S'cj09'
p553
(lp554
S'learned'
p555
atp556
a(S'cj08'
p557
(lp558
S'learned'
p559
atp560
a(S'cj07'
p561
(lp562
S'learned'
p563
atp564
a(S'cj06'
p565
(lp566
S'learned'
p567
atp568
a(S'cj05'
p569
(lp570
S'learned'
p571
atp572
a(S'cj04'
p573
(lp574
S'learned'
p575
atp576
a(S'cj03'
p577
(lp578
S'learned'
p579
atp580
a(S'cj02'
p581
(lp582
S'learned'
p583
atp584
a(S'cj01'
p585
(lp586
S'learned'
p587
atp588
a(S'ce31'
p589
(lp590
S'hobbies'
p591
atp592
a(S'ce30'
p593
(lp594
S'hobbies'
p595
atp596
a(S'ce33'
p597
(lp598
S'hobbies'
p599
atp600
a(S'ce32'
p601
(lp602
S'hobbies'
p603
atp604
a(S'ce35'
p605
(lp606
S'hobbies'
p607
atp608
a(S'ce34'
p609
(lp610
S'hobbies'
p611
atp612
a(S'ce36'
p613
(lp614
S'hobbies'
p615
atp616
a(S'cj49'
p617
(lp618
S'learned'
p619
atp620
a(S'ce03'
p621
(lp622
S'hobbies'
p623
atp624
a(S'cf40'
p625
(lp626
S'lore'
p627
atp628
a(S'ch27'
p629
(lp630
S'government'
p631
atp632
a(S'ch26'
p633
(lp634
S'government'
p635
atp636
a(S'ch25'
p637
(lp638
S'government'
p639
atp640
a(S'ch24'
p641
(lp642
S'government'
p643
atp644
a(S'ch23'
p645
(lp646
S'government'
p647
atp648
a(S'ch22'
p649
(lp650
S'government'
p651
atp652
a(S'ch21'
p653
(lp654
S'government'
p655
atp656
a(S'ch20'
p657
(lp658
S'government'
p659
atp660
a(S'ch29'
p661
(lp662
S'government'
p663
atp664
a(S'ch28'
p665
(lp666
S'government'
p667
atp668
a(S'cl18'
p669
(lp670
S'mystery'
p671
atp672
a(S'cl19'
p673
(lp674
S'mystery'
p675
atp676
a(S'cl16'
p677
(lp678
S'mystery'
p679
atp680
a(S'cl17'
p681
(lp682
S'mystery'
p683
atp684
a(S'cl14'
p685
(lp686
S'mystery'
p687
atp688
a(S'cl15'
p689
(lp690
S'mystery'
p691
atp692
a(S'cl12'
p693
(lp694
S'mystery'
p695
atp696
a(S'cl13'
p697
(lp698
S'mystery'
p699
atp700
a(S'cl10'
p701
(lp702
S'mystery'
p703
atp704
a(S'cl11'
p705
(lp706
S'mystery'
p707
atp708
a(S'cg60'
p709
(lp710
S'belles_lettres'
p711
atp712
a(S'cg61'
p713
(lp714
S'belles_lettres'
p715
atp716
a(S'cg62'
p717
(lp718
S'belles_lettres'
p719
atp720
a(S'cg63'
p721
(lp722
S'belles_lettres'
p723
atp724
a(S'cg64'
p725
(lp726
S'belles_lettres'
p727
atp728
a(S'cg65'
p729
(lp730
S'belles_lettres'
p731
atp732
a(S'cg66'
p733
(lp734
S'belles_lettres'
p735
atp736
a(S'cg67'
p737
(lp738
S'belles_lettres'
p739
atp740
a(S'cg68'
p741
(lp742
S'belles_lettres'
p743
atp744
a(S'cg69'
p745
(lp746
S'belles_lettres'
p747
atp748
a(S'cf48'
p749
(lp750
S'lore'
p751
atp752
a(S'cc11'
p753
(lp754
S'reviews'
p755
atp756
a(S'cc10'
p757
(lp758
S'reviews'
p759
atp760
a(S'cc13'
p761
(lp762
S'reviews'
p763
atp764
a(S'cc12'
p765
(lp766
S'reviews'
p767
atp768
a(S'cc15'
p769
(lp770
S'reviews'
p771
atp772
a(S'cc14'
p773
(lp774
S'reviews'
p775
atp776
a(S'cf41'
p777
(lp778
S'lore'
p779
atp780
a(S'cc16'
p781
(lp782
S'reviews'
p783
atp784
a(S'cj43'
p785
(lp786
S'learned'
p787
atp788
a(S'cj42'
p789
(lp790
S'learned'
p791
atp792
a(S'cj41'
p793
(lp794
S'learned'
p795
atp796
a(S'cj40'
p797
(lp798
S'learned'
p799
atp800
a(S'cj47'
p801
(lp802
S'learned'
p803
atp804
a(S'cj46'
p805
(lp806
S'learned'
p807
atp808
a(S'cj45'
p809
(lp810
S'learned'
p811
atp812
a(S'cj44'
p813
(lp814
S'learned'
p815
atp816
a(S'ce01'
p817
(lp818
S'hobbies'
p819
atp820
a(S'ce02'
p821
(lp822
S'hobbies'
p823
atp824
a(S'cj48'
p825
(lp826
S'learned'
p827
atp828
a(S'ce04'
p829
(lp830
S'hobbies'
p831
atp832
a(S'ce05'
p833
(lp834
S'hobbies'
p835
atp836
a(S'ce06'
p837
(lp838
S'hobbies'
p839
atp840
a(S'ce07'
p841
(lp842
S'hobbies'
p843
atp844
a(S'cj76'
p845
(lp846
S'learned'
p847
atp848
a(S'cj77'
p849
(lp850
S'learned'
p851
atp852
a(S'cb14'
p853
(lp854
S'editorial'
p855
atp856
a(S'cb15'
p857
(lp858
S'editorial'
p859
atp860
a(S'cb16'
p861
(lp862
S'editorial'
p863
atp864
a(S'cb17'
p865
(lp866
S'editorial'
p867
atp868
a(S'cb10'
p869
(lp870
S'editorial'
p871
atp872
a(S'cb11'
p873
(lp874
S'editorial'
p875
atp876
a(S'cb12'
p877
(lp878
S'editorial'
p879
atp880
a(S'cb13'
p881
(lp882
S'editorial'
p883
atp884
a(S'cb18'
p885
(lp886
S'editorial'
p887
atp888
a(S'cb19'
p889
(lp890
S'editorial'
p891
atp892
a(S'ce15'
p893
(lp894
S'hobbies'
p895
atp896
a(S'cj74'
p897
(lp898
S'learned'
p899
atp900
a(S'cj75'
p901
(lp902
S'learned'
p903
atp904
a(S'cj73'
p905
(lp906
S'learned'
p907
atp908
a(S'cg29'
p909
(lp910
S'belles_lettres'
p911
atp912
a(S'cp05'
p913
(lp914
S'romance'
p915
atp916
a(S'cp04'
p917
(lp918
S'romance'
p919
atp920
a(S'cp07'
p921
(lp922
S'romance'
p923
atp924
a(S'cp06'
p925
(lp926
S'romance'
p927
atp928
a(S'cp01'
p929
(lp930
S'romance'
p931
atp932
a(S'cp03'
p933
(lp934
S'romance'
p935
atp936
a(S'cp02'
p937
(lp938
S'romance'
p939
atp940
a(S'cp09'
p941
(lp942
S'romance'
p943
atp944
a(S'cp08'
p945
(lp946
S'romance'
p947
atp948
a(S'cj70'
p949
(lp950
S'learned'
p951
atp952
a(S'cf03'
p953
(lp954
S'lore'
p955
atp956
a(S'cf02'
p957
(lp958
S'lore'
p959
atp960
a(S'cf01'
p961
(lp962
S'lore'
p963
atp964
a(S'cf07'
p965
(lp966
S'lore'
p967
atp968
a(S'cf06'
p969
(lp970
S'lore'
p971
atp972
a(S'cf05'
p973
(lp974
S'lore'
p975
atp976
a(S'cf04'
p977
(lp978
S'lore'
p979
atp980
a(S'cf09'
p981
(lp982
S'lore'
p983
atp984
a(S'cf08'
p985
(lp986
S'lore'
p987
atp988
a(S'cj71'
p989
(lp990
S'learned'
p991
atp992
a(S'cp27'
p993
(lp994
S'romance'
p995
atp996
a(S'cg39'
p997
(lp998
S'belles_lettres'
p999
atp1000
a(S'cg38'
p1001
(lp1002
S'belles_lettres'
p1003
atp1004
a(S'cg37'
p1005
(lp1006
S'belles_lettres'
p1007
atp1008
a(S'cg36'
p1009
(lp1010
S'belles_lettres'
p1011
atp1012
a(S'cg35'
p1013
(lp1014
S'belles_lettres'
p1015
atp1016
a(S'cg34'
p1017
(lp1018
S'belles_lettres'
p1019
atp1020
a(S'cg33'
p1021
(lp1022
S'belles_lettres'
p1023
atp1024
a(S'cg32'
p1025
(lp1026
S'belles_lettres'
p1027
atp1028
a(S'cg31'
p1029
(lp1030
S'belles_lettres'
p1031
atp1032
a(S'cg30'
p1033
(lp1034
S'belles_lettres'
p1035
atp1036
a(S'cn21'
p1037
(lp1038
S'adventure'
p1039
atp1040
a(S'cn20'
p1041
(lp1042
S'adventure'
p1043
atp1044
a(S'cn23'
p1045
(lp1046
S'adventure'
p1047
atp1048
a(S'cn22'
p1049
(lp1050
S'adventure'
p1051
atp1052
a(S'cn25'
p1053
(lp1054
S'adventure'
p1055
atp1056
a(S'cn24'
p1057
(lp1058
S'adventure'
p1059
atp1060
a(S'cn27'
p1061
(lp1062
S'adventure'
p1063
atp1064
a(S'cn26'
p1065
(lp1066
S'adventure'
p1067
atp1068
a(S'cn29'
p1069
(lp1070
S'adventure'
p1071
atp1072
a(S'cn28'
p1073
(lp1074
S'adventure'
p1075
atp1076
a(S'cj38'
p1077
(lp1078
S'learned'
p1079
atp1080
a(S'cj39'
p1081
(lp1082
S'learned'
p1083
atp1084
a(S'cj32'
p1085
(lp1086
S'learned'
p1087
atp1088
a(S'cj33'
p1089
(lp1090
S'learned'
p1091
atp1092
a(S'cj30'
p1093
(lp1094
S'learned'
p1095
atp1096
a(S'cj31'
p1097
(lp1098
S'learned'
p1099
atp1100
a(S'cj36'
p1101
(lp1102
S'learned'
p1103
atp1104
a(S'cj37'
p1105
(lp1106
S'learned'
p1107
atp1108
a(S'cj34'
p1109
(lp1110
S'learned'
p1111
atp1112
a(S'cj35'
p1113
(lp1114
S'learned'
p1115
atp1116
a(S'ca35'
p1117
(lp1118
S'news'
p1119
atp1120
a(S'ca34'
p1121
(lp1122
S'news'
p1123
atp1124
a(S'ca37'
p1125
(lp1126
S'news'
p1127
atp1128
a(S'ca36'
p1129
(lp1130
S'news'
p1131
atp1132
a(S'ca31'
p1133
(lp1134
S'news'
p1135
atp1136
a(S'ca30'
p1137
(lp1138
S'news'
p1139
atp1140
a(S'ca33'
p1141
(lp1142
S'news'
p1143
atp1144
a(S'ca32'
p1145
(lp1146
S'news'
p1147
atp1148
a(S'ca39'
p1149
(lp1150
S'news'
p1151
atp1152
a(S'ca38'
p1153
(lp1154
S'news'
p1155
atp1156
a(S'ck06'
p1157
(lp1158
S'fiction'
p1159
atp1160
a(S'ck07'
p1161
(lp1162
S'fiction'
p1163
atp1164
a(S'ck04'
p1165
(lp1166
S'fiction'
p1167
atp1168
a(S'ck05'
p1169
(lp1170
S'fiction'
p1171
atp1172
a(S'ck02'
p1173
(lp1174
S'fiction'
p1175
atp1176
a(S'ck03'
p1177
(lp1178
S'fiction'
p1179
atp1180
a(S'ck01'
p1181
(lp1182
S'fiction'
p1183
atp1184
a(S'ck08'
p1185
(lp1186
S'fiction'
p1187
atp1188
a(S'ck09'
p1189
(lp1190
S'fiction'
p1191
atp1192
a(S'ch12'
p1193
(lp1194
S'government'
p1195
atp1196
a(S'ch13'
p1197
(lp1198
S'government'
p1199
atp1200
a(S'ch10'
p1201
(lp1202
S'government'
p1203
atp1204
a(S'ch11'
p1205
(lp1206
S'government'
p1207
atp1208
a(S'ch16'
p1209
(lp1210
S'government'
p1211
atp1212
a(S'ch17'
p1213
(lp1214
S'government'
p1215
atp1216
a(S'ch14'
p1217
(lp1218
S'government'
p1219
atp1220
a(S'ch15'
p1221
(lp1222
S'government'
p1223
atp1224
a(S'ch18'
p1225
(lp1226
S'government'
p1227
atp1228
a(S'ch19'
p1229
(lp1230
S'government'
p1231
atp1232
a(S'cl09'
p1233
(lp1234
S'mystery'
p1235
atp1236
a(S'cl08'
p1237
(lp1238
S'mystery'
p1239
atp1240
a(S'cm01'
p1241
(lp1242
S'science_fiction'
p1243
atp1244
a(S'cl01'
p1245
(lp1246
S'mystery'
p1247
atp1248
a(S'cl03'
p1249
(lp1250
S'mystery'
p1251
atp1252
a(S'cl02'
p1253
(lp1254
S'mystery'
p1255
atp1256
a(S'cl05'
p1257
(lp1258
S'mystery'
p1259
atp1260
a(S'cl04'
p1261
(lp1262
S'mystery'
p1263
atp1264
a(S'cl07'
p1265
(lp1266
S'mystery'
p1267
atp1268
a(S'cl06'
p1269
(lp1270
S'mystery'
p1271
atp1272
a(S'cg73'
p1273
(lp1274
S'belles_lettres'
p1275
atp1276
a(S'cg72'
p1277
(lp1278
S'belles_lettres'
p1279
atp1280
a(S'cg71'
p1281
(lp1282
S'belles_lettres'
p1283
atp1284
a(S'cg70'
p1285
(lp1286
S'belles_lettres'
p1287
atp1288
a(S'ck29'
p1289
(lp1290
S'fiction'
p1291
atp1292
a(S'cg75'
p1293
(lp1294
S'belles_lettres'
p1295
atp1296
a(S'cg74'
p1297
(lp1298
S'belles_lettres'
p1299
atp1300
a(S'cj61'
p1301
(lp1302
S'learned'
p1303
atp1304
a(S'cj60'
p1305
(lp1306
S'learned'
p1307
atp1308
a(S'cj63'
p1309
(lp1310
S'learned'
p1311
atp1312
a(S'ce19'
p1313
(lp1314
S'hobbies'
p1315
atp1316
a(S'ce18'
p1317
(lp1318
S'hobbies'
p1319
atp1320
a(S'ca08'
p1321
(lp1322
S'news'
p1323
atp1324
a(S'ca09'
p1325
(lp1326
S'news'
p1327
atp1328
a(S'cj78'
p1329
(lp1330
S'learned'
p1331
atp1332
a(S'cj79'
p1333
(lp1334
S'learned'
p1335
atp1336
a(S'ca04'
p1337
(lp1338
S'news'
p1339
atp1340
a(S'ca05'
p1341
(lp1342
S'news'
p1343
atp1344
a(S'ca06'
p1345
(lp1346
S'news'
p1347
atp1348
a(S'ca07'
p1349
(lp1350
S'news'
p1351
atp1352
a(S'ce17'
p1353
(lp1354
S'hobbies'
p1355
atp1356
a(S'ce16'
p1357
(lp1358
S'hobbies'
p1359
atp1360
a(S'ca02'
p1361
(lp1362
S'news'
p1363
atp1364
a(S'ca03'
p1365
(lp1366
S'news'
p1367
atp1368
a(S'cj67'
p1369
(lp1370
S'learned'
p1371
atp1372
a(S'cj66'
p1373
(lp1374
S'learned'
p1375
atp1376
a(S'cb07'
p1377
(lp1378
S'editorial'
p1379
atp1380
a(S'cb06'
p1381
(lp1382
S'editorial'
p1383
atp1384
a(S'cb05'
p1385
(lp1386
S'editorial'
p1387
atp1388
a(S'cb04'
p1389
(lp1390
S'editorial'
p1391
atp1392
a(S'cb03'
p1393
(lp1394
S'editorial'
p1395
atp1396
a(S'cb02'
p1397
(lp1398
S'editorial'
p1399
atp1400
a(S'cb01'
p1401
(lp1402
S'editorial'
p1403
atp1404
a(S'cb09'
p1405
(lp1406
S'editorial'
p1407
atp1408
a(S'cb08'
p1409
(lp1410
S'editorial'
p1411
atp1412
a(S'cn18'
p1413
(lp1414
S'adventure'
p1415
atp1416
a(S'cn19'
p1417
(lp1418
S'adventure'
p1419
atp1420
a(S'cn10'
p1421
(lp1422
S'adventure'
p1423
atp1424
a(S'cn11'
p1425
(lp1426
S'adventure'
p1427
atp1428
a(S'cn12'
p1429
(lp1430
S'adventure'
p1431
atp1432
a(S'cn13'
p1433
(lp1434
S'adventure'
p1435
atp1436
a(S'cn14'
p1437
(lp1438
S'adventure'
p1439
atp1440
a(S'cn15'
p1441
(lp1442
S'adventure'
p1443
atp1444
a(S'cn16'
p1445
(lp1446
S'adventure'
p1447
atp1448
a(S'cn17'
p1449
(lp1450
S'adventure'
p1451
atp1452
a(S'cn07'
p1453
(lp1454
S'adventure'
p1455
atp1456
a(S'cf38'
p1457
(lp1458
S'lore'
p1459
atp1460
a(S'cf39'
p1461
(lp1462
S'lore'
p1463
atp1464
a(S'cf36'
p1465
(lp1466
S'lore'
p1467
atp1468
a(S'cf37'
p1469
(lp1470
S'lore'
p1471
atp1472
a(S'cf34'
p1473
(lp1474
S'lore'
p1475
atp1476
a(S'cf35'
p1477
(lp1478
S'lore'
p1479
atp1480
a(S'cf32'
p1481
(lp1482
S'lore'
p1483
atp1484
a(S'cf33'
p1485
(lp1486
S'lore'
p1487
atp1488
a(S'cf30'
p1489
(lp1490
S'lore'
p1491
atp1492
a(S'cf31'
p1493
(lp1494
S'lore'
p1495
atp1496
a(S'cg08'
p1497
(lp1498
S'belles_lettres'
p1499
atp1500
a(S'cg09'
p1501
(lp1502
S'belles_lettres'
p1503
atp1504
a(S'cg02'
p1505
(lp1506
S'belles_lettres'
p1507
atp1508
a(S'cg03'
p1509
(lp1510
S'belles_lettres'
p1511
atp1512
a(S'cg01'
p1513
(lp1514
S'belles_lettres'
p1515
atp1516
a(S'cg06'
p1517
(lp1518
S'belles_lettres'
p1519
atp1520
a(S'cg07'
p1521
(lp1522
S'belles_lettres'
p1523
atp1524
a(S'cg04'
p1525
(lp1526
S'belles_lettres'
p1527
atp1528
a(S'cg05'
p1529
(lp1530
S'belles_lettres'
p1531
atp1532
a(S'cj25'
p1533
(lp1534
S'learned'
p1535
atp1536
a(S'cj24'
p1537
(lp1538
S'learned'
p1539
atp1540
a(S'cj27'
p1541
(lp1542
S'learned'
p1543
atp1544
a(S'cj26'
p1545
(lp1546
S'learned'
p1547
atp1548
a(S'cj21'
p1549
(lp1550
S'learned'
p1551
atp1552
a(S'cj20'
p1553
(lp1554
S'learned'
p1555
atp1556
a(S'cj23'
p1557
(lp1558
S'learned'
p1559
atp1560
a(S'cj22'
p1561
(lp1562
S'learned'
p1563
atp1564
a(S'cj29'
p1565
(lp1566
S'learned'
p1567
atp1568
a(S'cj28'
p1569
(lp1570
S'learned'
p1571
atp1572
a(S'cr07'
p1573
(lp1574
S'humor'
p1575
atp1576
a(S'cr06'
p1577
(lp1578
S'humor'
p1579
atp1580
a(S'cr05'
p1581
(lp1582
S'humor'
p1583
atp1584
a(S'cr04'
p1585
(lp1586
S'humor'
p1587
atp1588
a(S'cr03'
p1589
(lp1590
S'humor'
p1591
atp1592
a(S'cr02'
p1593
(lp1594
S'humor'
p1595
atp1596
a(S'cr01'
p1597
(lp1598
S'humor'
p1599
atp1600
a(S'cr09'
p1601
(lp1602
S'humor'
p1603
atp1604
a(S'cr08'
p1605
(lp1606
S'humor'
p1607
atp1608
a(S'cd16'
p1609
(lp1610
S'religion'
p1611
atp1612
a(S'cd17'
p1613
(lp1614
S'religion'
p1615
atp1616
a(S'cd14'
p1617
(lp1618
S'religion'
p1619
atp1620
a(S'cd15'
p1621
(lp1622
S'religion'
p1623
atp1624
a(S'cd12'
p1625
(lp1626
S'religion'
p1627
atp1628
a(S'cd13'
p1629
(lp1630
S'religion'
p1631
atp1632
a(S'cd10'
p1633
(lp1634
S'religion'
p1635
atp1636
a(S'cd11'
p1637
(lp1638
S'religion'
p1639
atp1640
a(S'ck11'
p1641
(lp1642
S'fiction'
p1643
atp1644
a(S'ck10'
p1645
(lp1646
S'fiction'
p1647
atp1648
a(S'ck13'
p1649
(lp1650
S'fiction'
p1651
atp1652
a(S'ck12'
p1653
(lp1654
S'fiction'
p1655
atp1656
a(S'ck15'
p1657
(lp1658
S'fiction'
p1659
atp1660
a(S'ck14'
p1661
(lp1662
S'fiction'
p1663
atp1664
a(S'ck17'
p1665
(lp1666
S'fiction'
p1667
atp1668
a(S'ck16'
p1669
(lp1670
S'fiction'
p1671
atp1672
a(S'ck19'
p1673
(lp1674
S'fiction'
p1675
atp1676
a(S'ck18'
p1677
(lp1678
S'fiction'
p1679
atp1680
a(S'cn03'
p1681
(lp1682
S'adventure'
p1683
atp1684
a(S'cn02'
p1685
(lp1686
S'adventure'
p1687
atp1688
a(S'cn01'
p1689
(lp1690
S'adventure'
p1691
atp1692
a(S'cj17'
p1693
(lp1694
S'learned'
p1695
atp1696
a(S'ch09'
p1697
(lp1698
S'government'
p1699
atp1700
a(S'ch08'
p1701
(lp1702
S'government'
p1703
atp1704
a(S'ch05'
p1705
(lp1706
S'government'
p1707
atp1708
a(S'ch04'
p1709
(lp1710
S'government'
p1711
atp1712
a(S'ch07'
p1713
(lp1714
S'government'
p1715
atp1716
a(S'ch06'
p1717
(lp1718
S'government'
p1719
atp1720
a(S'ch01'
p1721
(lp1722
S'government'
p1723
atp1724
a(S'ch03'
p1725
(lp1726
S'government'
p1727
atp1728
a(S'ch02'
p1729
(lp1730
S'government'
p1731
atp1732
a(S'cn05'
p1733
(lp1734
S'adventure'
p1735
atp1736
a(S'cn04'
p1737
(lp1738
S'adventure'
p1739
atp1740
a(S'cp29'
p1741
(lp1742
S'romance'
p1743
atp1744
a(S'cp28'
p1745
(lp1746
S'romance'
p1747
atp1748
a(S'cm06'
p1749
(lp1750
S'science_fiction'
p1751
atp1752
a(S'cp26'
p1753
(lp1754
S'romance'
p1755
atp1756
a(S'cp25'
p1757
(lp1758
S'romance'
p1759
atp1760
a(S'cp24'
p1761
(lp1762
S'romance'
p1763
atp1764
a(S'cp23'
p1765
(lp1766
S'romance'
p1767
atp1768
a(S'cp22'
p1769
(lp1770
S'romance'
p1771
atp1772
a(S'cp21'
p1773
(lp1774
S'romance'
p1775
atp1776
a(S'cp20'
p1777
(lp1778
S'romance'
p1779
atp1780
a(S'cg48'
p1781
(lp1782
S'belles_lettres'
p1783
atp1784
a(S'cg49'
p1785
(lp1786
S'belles_lettres'
p1787
atp1788
a(S'cg46'
p1789
(lp1790
S'belles_lettres'
p1791
atp1792
a(S'cg47'
p1793
(lp1794
S'belles_lettres'
p1795
atp1796
a(S'cg44'
p1797
(lp1798
S'belles_lettres'
p1799
atp1800
a(S'cg45'
p1801
(lp1802
S'belles_lettres'
p1803
atp1804
a(S'cg42'
p1805
(lp1806
S'belles_lettres'
p1807
atp1808
a(S'cg43'
p1809
(lp1810
S'belles_lettres'
p1811
atp1812
a(S'cg40'
p1813
(lp1814
S'belles_lettres'
p1815
atp1816
a(S'cg41'
p1817
(lp1818
S'belles_lettres'
p1819
atp1820
a(S'cj69'
p1821
(lp1822
S'learned'
p1823
atp1824
a(S'cj68'
p1825
(lp1826
S'learned'
p1827
atp1828
a(S'cm02'
p1829
(lp1830
S'science_fiction'
p1831
atp1832
a(S'cm03'
p1833
(lp1834
S'science_fiction'
p1835
atp1836
a(S'cm04'
p1837
(lp1838
S'science_fiction'
p1839
atp1840
a(S'cm05'
p1841
(lp1842
S'science_fiction'
p1843
atp1844
a(S'ca19'
p1845
(lp1846
S'news'
p1847
atp1848
a(S'ca18'
p1849
(lp1850
S'news'
p1851
atp1852
a(S'ca17'
p1853
(lp1854
S'news'
p1855
atp1856
a(S'ca16'
p1857
(lp1858
S'news'
p1859
atp1860
a(S'ca15'
p1861
(lp1862
S'news'
p1863
atp1864
a(S'ca14'
p1865
(lp1866
S'news'
p1867
atp1868
a(S'ca13'
p1869
(lp1870
S'news'
p1871
atp1872
a(S'ca12'
p1873
(lp1874
S'news'
p1875
atp1876
a(S'ca11'
p1877
(lp1878
S'news'
p1879
atp1880
a(S'ca10'
p1881
(lp1882
S'news'
p1883
atp1884
a(S'cn06'
p1885
(lp1886
S'adventure'
p1887
atp1888
a(S'ce13'
p1889
(lp1890
S'hobbies'
p1891
atp1892
a(S'ce12'
p1893
(lp1894
S'hobbies'
p1895
atp1896
a(S'ce11'
p1897
(lp1898
S'hobbies'
p1899
atp1900
a(S'ce10'
p1901
(lp1902
S'hobbies'
p1903
atp1904
a(S'cj72'
p1905
(lp1906
S'learned'
p1907
atp1908
a(S'ca01'
p1909
(lp1910
S'news'
p1911
atp1912
a(S'cn09'
p1913
(lp1914
S'adventure'
p1915
atp1916
a(S'cn08'
p1917
(lp1918
S'adventure'
p1919
atp1920
a(S'cj18'
p1921
(lp1922
S'learned'
p1923
atp1924
a(S'cj19'
p1925
(lp1926
S'learned'
p1927
atp1928
a(S'cj14'
p1929
(lp1930
S'learned'
p1931
atp1932
a(S'cj15'
p1933
(lp1934
S'learned'
p1935
atp1936
a(S'cj16'
p1937
(lp1938
S'learned'
p1939
atp1940
a(S'ce14'
p1941
(lp1942
S'hobbies'
p1943
atp1944
a(S'cj10'
p1945
(lp1946
S'learned'
p1947
atp1948
a(S'cj11'
p1949
(lp1950
S'learned'
p1951
atp1952
a(S'cj12'
p1953
(lp1954
S'learned'
p1955
atp1956
a(S'cj13'
p1957
(lp1958
S'learned'
p1959
atp1960
a(S'ce26'
p1961
(lp1962
S'hobbies'
p1963
atp1964
a(S'ce27'
p1965
(lp1966
S'hobbies'
p1967
atp1968
a(S'ce24'
p1969
(lp1970
S'hobbies'
p1971
atp1972
a(S'ce25'
p1973
(lp1974
S'hobbies'
p1975
atp1976
a(S'ce22'
p1977
(lp1978
S'hobbies'
p1979
atp1980
a(S'ce23'
p1981
(lp1982
S'hobbies'
p1983
atp1984
a(S'ce20'
p1985
(lp1986
S'hobbies'
p1987
atp1988
a(S'ce21'
p1989
(lp1990
S'hobbies'
p1991
atp1992
a(S'ce28'
p1993
(lp1994
S'hobbies'
p1995
atp1996
a(S'ce29'
p1997
(lp1998
S'hobbies'
p1999
atp2000
a.